target datalayout = "e-m:e-p270:32:32-p271:32:32-p272:64:64-i64:64-i128:128-f80:128-n8:16:32:64-S128"
target triple = "x86_64-unknown-linux-gnu"

%struct.stb_lexer = type { ptr, ptr, ptr, ptr, i32, ptr, ptr, i64, double, i64, ptr, i32 }
%struct.stb_lex_location = type { i32, i32 }

; Function Attrs: nounwind uwtable
define void @stb_c_lexer_get_location(ptr noundef %lexer, ptr noundef %where, ptr noundef %loc) #0 {
entry:
  %lexer.addr = alloca ptr, align 8
  %where.addr = alloca ptr, align 8
  %loc.addr = alloca ptr, align 8
  %p = alloca ptr, align 8
  %line_number = alloca i32, align 4
  %char_offset = alloca i32, align 4
  store ptr %lexer, ptr %lexer.addr, align 8
  store ptr %where, ptr %where.addr, align 8
  store ptr %loc, ptr %loc.addr, align 8
  %0 = load ptr, ptr %lexer.addr, align 8
  %input_stream = getelementptr inbounds %struct.stb_lexer, ptr %0, i32 0, i32 0
  %1 = load ptr, ptr %input_stream, align 8
  store ptr %1, ptr %p, align 8
  store i32 1, ptr %line_number, align 4
  store i32 0, ptr %char_offset, align 4
  br label %while.cond

while.cond:                                       ; preds = %if.end, %entry
  %2 = load ptr, ptr %p, align 8
  %3 = load i8, ptr %2, align 1
  %conv = sext i8 %3 to i32
  %tobool = icmp ne i32 %conv, 0
  br i1 %tobool, label %land.rhs, label %land.end

land.rhs:                                         ; preds = %while.cond
  %4 = load ptr, ptr %p, align 8
  %5 = load ptr, ptr %where.addr, align 8
  %cmp = icmp ult ptr %4, %5
  br label %land.end

land.end:                                         ; preds = %land.rhs, %while.cond
  %6 = phi i1 [ false, %while.cond ], [ %cmp, %land.rhs ]
  br i1 %6, label %while.body, label %while.end

while.body:                                       ; preds = %land.end
  %7 = load ptr, ptr %p, align 8
  %8 = load i8, ptr %7, align 1
  %conv2 = sext i8 %8 to i32
  %cmp3 = icmp eq i32 %conv2, 10
  br i1 %cmp3, label %if.then, label %lor.lhs.false

lor.lhs.false:                                    ; preds = %while.body
  %9 = load ptr, ptr %p, align 8
  %10 = load i8, ptr %9, align 1
  %conv5 = sext i8 %10 to i32
  %cmp6 = icmp eq i32 %conv5, 13
  br i1 %cmp6, label %if.then, label %if.else

if.then:                                          ; preds = %lor.lhs.false, %while.body
  %11 = load ptr, ptr %p, align 8
  %arrayidx = getelementptr inbounds i8, ptr %11, i64 0
  %12 = load i8, ptr %arrayidx, align 1
  %conv8 = sext i8 %12 to i32
  %13 = load ptr, ptr %p, align 8
  %arrayidx9 = getelementptr inbounds i8, ptr %13, i64 1
  %14 = load i8, ptr %arrayidx9, align 1
  %conv10 = sext i8 %14 to i32
  %add = add nsw i32 %conv8, %conv10
  %cmp11 = icmp eq i32 %add, 23
  %cond = select i1 %cmp11, i32 2, i32 1
  %15 = load ptr, ptr %p, align 8
  %idx.ext = sext i32 %cond to i64
  %add.ptr = getelementptr inbounds i8, ptr %15, i64 %idx.ext
  store ptr %add.ptr, ptr %p, align 8
  %16 = load i32, ptr %line_number, align 4
  %add13 = add nsw i32 %16, 1
  store i32 %add13, ptr %line_number, align 4
  store i32 0, ptr %char_offset, align 4
  br label %if.end

if.else:                                          ; preds = %lor.lhs.false
  %17 = load ptr, ptr %p, align 8
  %incdec.ptr = getelementptr inbounds i8, ptr %17, i32 1
  store ptr %incdec.ptr, ptr %p, align 8
  %18 = load i32, ptr %char_offset, align 4
  %inc = add nsw i32 %18, 1
  store i32 %inc, ptr %char_offset, align 4
  br label %if.end

if.end:                                           ; preds = %if.else, %if.then
  br label %while.cond, !llvm.loop !4

while.end:                                        ; preds = %land.end
  %19 = load i32, ptr %line_number, align 4
  %20 = load ptr, ptr %loc.addr, align 8
  %line_number14 = getelementptr inbounds %struct.stb_lex_location, ptr %20, i32 0, i32 0
  store i32 %19, ptr %line_number14, align 4
  %21 = load i32, ptr %char_offset, align 4
  %22 = load ptr, ptr %loc.addr, align 8
  %line_offset = getelementptr inbounds %struct.stb_lex_location, ptr %22, i32 0, i32 1
  store i32 %21, ptr %line_offset, align 4
  ret void
}