; Function Attrs: nofree norecurse nosync nounwind memory(read, argmem: readwrite, inaccessiblemem: none) uwtable
define void @stb_c_lexer_get_location(ptr noundef readonly captures(none) %lexer, ptr noundef readnone %where, ptr noundef writeonly captures(none) %loc) local_unnamed_addr #1 {
entry:
  %0 = load ptr, ptr %lexer, align 8
  %1 = load i8, ptr %0, align 1
  %tobool11 = icmp ne i8 %1, 0
  %cmp12 = icmp ult ptr %0, %where
  %2 = and i1 %cmp12, %tobool11
  br i1 %2, label %while.body, label %while.end

while.body:                                       ; preds = %entry, %if.end
  %3 = phi i8 [ %5, %if.end ], [ %1, %entry ]
  %char_offset.015 = phi i32 [ %char_offset.1, %if.end ], [ 0, %entry ]
  %line_number.014 = phi i32 [ %line_number.1, %if.end ], [ 1, %entry ]
  %p.013 = phi ptr [ %p.1, %if.end ], [ %0, %entry ]
  switch i8 %3, label %if.else [
    i8 10, label %if.then
    i8 13, label %if.then
  ]

if.then:                                          ; preds = %while.body, %while.body
  %conv8 = zext nneg i8 %3 to i32
  %arrayidx9 = getelementptr inbounds nuw i8, ptr %p.013, i64 1
  %4 = load i8, ptr %arrayidx9, align 1
  %conv10 = sext i8 %4 to i32
  %add = add nsw i32 %conv10, %conv8
  %cmp11 = icmp eq i32 %add, 23
  %cond = select i1 %cmp11, i64 2, i64 1
  %add.ptr = getelementptr inbounds nuw i8, ptr %p.013, i64 %cond
  %add13 = add nsw i32 %line_number.014, 1
  br label %if.end

if.else:                                          ; preds = %while.body
  %incdec.ptr = getelementptr inbounds nuw i8, ptr %p.013, i64 1
  %inc = add nsw i32 %char_offset.015, 1
  br label %if.end

if.end:                                           ; preds = %if.else, %if.then
  %p.1 = phi ptr [ %add.ptr, %if.then ], [ %incdec.ptr, %if.else ]
  %line_number.1 = phi i32 [ %add13, %if.then ], [ %line_number.014, %if.else ]
  %char_offset.1 = phi i32 [ 0, %if.then ], [ %inc, %if.else ]
  %5 = load i8, ptr %p.1, align 1
  %tobool = icmp ne i8 %5, 0
  %cmp = icmp ult ptr %p.1, %where
  %6 = and i1 %cmp, %tobool
  br i1 %6, label %while.body, label %while.end, !llvm.loop !4

while.end:                                        ; preds = %if.end, %entry
  %line_number.0.lcssa = phi i32 [ 1, %entry ], [ %line_number.1, %if.end ]
  %char_offset.0.lcssa = phi i32 [ 0, %entry ], [ %char_offset.1, %if.end ]
  store i32 %line_number.0.lcssa, ptr %loc, align 4
  %line_offset = getelementptr inbounds nuw i8, ptr %loc, i64 4
  store i32 %char_offset.0.lcssa, ptr %line_offset, align 4
  ret void
}